; Function Attrs: mustprogress uwtable
define i8 @_ZN7memif_t9read_int8Em(ptr noundef nonnull align 8 dereferenceable(16) %0, i64 noundef %1) unnamed_addr #0 align 2 personality ptr @__gxx_personality_v0 {
  %3 = alloca %class.target_endian.0, align 1
  store i8 0, ptr %3, align 1, !tbaa !18
  %4 = load ptr, ptr %0, align 8, !tbaa !9
  %5 = getelementptr inbounds nuw i8, ptr %4, i64 16
  %6 = load ptr, ptr %5, align 8
  call void %6(ptr noundef nonnull align 8 dereferenceable(16) %0, i64 noundef %1, i64 noundef 1, ptr noundef nonnull %3)
  %7 = load i8, ptr %3, align 1
  ret i8 %7
}